target datalayout = "e-m:e-p270:32:32-p271:32:32-p272:64:64-i64:64-i128:128-f80:128-n8:16:32:64-S128"
target triple = "x86_64-pc-linux-gnu"

%"class.google::LogMessage" = type { ptr, ptr, %"struct.google::LogMessageTime" }
%"struct.google::LogMessageTime" = type { %struct.tm, %"class.std::chrono::time_point", %"class.std::chrono::duration.26", %"class.std::chrono::duration.27" }
%struct.tm = type { i32, i32, i32, i32, i32, i32, i32, i32, i32, i64, ptr }
%"class.std::chrono::time_point" = type { %"class.std::chrono::duration" }
%"class.std::chrono::duration" = type { i64 }
%"class.std::chrono::duration.26" = type { i64 }
%"class.std::chrono::duration.27" = type { i64 }

@.str.3 = private unnamed_addr constant [112 x i8] c"generated/home/dtcxzyw/WorkSpace/Projects/compilers/llvm-opt-benchmark/bench/glog/glog/src/mock-log_unittest.cc\00", align 1
@.str.88 = private unnamed_addr constant [27 x i8] c"Logging the entire forest.\00", align 1
@.str.90 = private unnamed_addr constant [28 x i8] c"Logging the entire forest..\00", align 1
@.str.92 = private unnamed_addr constant [29 x i8] c"Logging the entire forest...\00", align 1

; Function Attrs: mustprogress uwtable
define internal void @_ZN12_GLOBAL__N_19LogForestEv() #4 personality ptr @__gxx_personality_v0 {
  %1 = alloca %"class.google::LogMessage", align 8
  %2 = alloca ptr, align 8
  %3 = alloca i32, align 4
  %4 = alloca %"class.google::LogMessage", align 8
  %5 = alloca %"class.google::LogMessage", align 8
  call void @_ZN6google10LogMessageC1EPKci(ptr noundef nonnull align 8 dereferenceable(96) %1, ptr noundef @.str.3, i32 noundef 74)
  %6 = invoke noundef nonnull align 8 dereferenceable(8) ptr @_ZN6google10LogMessage6streamEv(ptr noundef nonnull align 8 dereferenceable(96) %1)
          to label %7 unwind label %18

7:                                                ; preds = %0
  %8 = invoke noundef nonnull align 8 dereferenceable(8) ptr @_ZStlsISt11char_traitsIcEERSt13basic_ostreamIcT_ES5_PKc(ptr noundef nonnull align 8 dereferenceable(8) %6, ptr noundef @.str.88)
          to label %9 unwind label %18

9:                                                ; preds = %7
  call void @_ZN6google10LogMessageD1Ev(ptr noundef nonnull align 8 dereferenceable(96) %1)
  call void @_ZN6google10LogMessageC1EPKci(ptr noundef nonnull align 8 dereferenceable(96) %4, ptr noundef @.str.3, i32 noundef 75)
  %10 = invoke noundef nonnull align 8 dereferenceable(8) ptr @_ZN6google10LogMessage6streamEv(ptr noundef nonnull align 8 dereferenceable(96) %4)
          to label %11 unwind label %23

11:                                               ; preds = %9
  %12 = invoke noundef nonnull align 8 dereferenceable(8) ptr @_ZStlsISt11char_traitsIcEERSt13basic_ostreamIcT_ES5_PKc(ptr noundef nonnull align 8 dereferenceable(8) %10, ptr noundef @.str.90)
          to label %13 unwind label %23

13:                                               ; preds = %11
  call void @_ZN6google10LogMessageD1Ev(ptr noundef nonnull align 8 dereferenceable(96) %4)
  call void @_ZN6google10LogMessageC1EPKci(ptr noundef nonnull align 8 dereferenceable(96) %5, ptr noundef @.str.3, i32 noundef 76)
  %14 = invoke noundef nonnull align 8 dereferenceable(8) ptr @_ZN6google10LogMessage6streamEv(ptr noundef nonnull align 8 dereferenceable(96) %5)
          to label %15 unwind label %28

15:                                               ; preds = %13
  %16 = invoke noundef nonnull align 8 dereferenceable(8) ptr @_ZStlsISt11char_traitsIcEERSt13basic_ostreamIcT_ES5_PKc(ptr noundef nonnull align 8 dereferenceable(8) %14, ptr noundef @.str.92)
          to label %17 unwind label %28

17:                                               ; preds = %15
  call void @_ZN6google10LogMessageD1Ev(ptr noundef nonnull align 8 dereferenceable(96) %5)
  ret void

18:                                               ; preds = %7, %0
  %19 = landingpad { ptr, i32 }
          cleanup
  %20 = extractvalue { ptr, i32 } %19, 0
  store ptr %20, ptr %2, align 8
  %21 = extractvalue { ptr, i32 } %19, 1
  store i32 %21, ptr %3, align 4
  invoke void @_ZN6google10LogMessageD1Ev(ptr noundef nonnull align 8 dereferenceable(96) %1)
          to label %22 unwind label %38

22:                                               ; preds = %18
  br label %33

23:                                               ; preds = %11, %9
  %24 = landingpad { ptr, i32 }
          cleanup
  %25 = extractvalue { ptr, i32 } %24, 0
  store ptr %25, ptr %2, align 8
  %26 = extractvalue { ptr, i32 } %24, 1
  store i32 %26, ptr %3, align 4
  invoke void @_ZN6google10LogMessageD1Ev(ptr noundef nonnull align 8 dereferenceable(96) %4)
          to label %27 unwind label %38

27:                                               ; preds = %23
  br label %33

28:                                               ; preds = %15, %13
  %29 = landingpad { ptr, i32 }
          cleanup
  %30 = extractvalue { ptr, i32 } %29, 0
  store ptr %30, ptr %2, align 8
  %31 = extractvalue { ptr, i32 } %29, 1
  store i32 %31, ptr %3, align 4
  invoke void @_ZN6google10LogMessageD1Ev(ptr noundef nonnull align 8 dereferenceable(96) %5)
          to label %32 unwind label %38

32:                                               ; preds = %28
  br label %33

33:                                               ; preds = %32, %27, %22
  %34 = load ptr, ptr %2, align 8
  %35 = load i32, ptr %3, align 4
  %36 = insertvalue { ptr, i32 } poison, ptr %34, 0
  %37 = insertvalue { ptr, i32 } %36, i32 %35, 1
  resume { ptr, i32 } %37

38:                                               ; preds = %28, %23, %18
  %39 = landingpad { ptr, i32 }
          catch ptr null
  %40 = extractvalue { ptr, i32 } %39, 0
  call void @__clang_call_terminate(ptr %40) #21
  unreachable
}