; Function Attrs: mustprogress uwtable
define internal void @_ZN12_GLOBAL__N_19LogForestEv() #3 personality ptr @__gxx_personality_v0 {
  %1 = alloca %"class.google::LogMessage", align 8
  %2 = alloca %"class.google::LogMessage", align 8
  %3 = alloca %"class.google::LogMessage", align 8
  call void @_ZN6google10LogMessageC1EPKci(ptr noundef nonnull align 8 dereferenceable(96) %1, ptr noundef nonnull @.str.3, i32 noundef 74)
  %4 = invoke noundef nonnull align 8 dereferenceable(8) ptr @_ZN6google10LogMessage6streamEv(ptr noundef nonnull align 8 dereferenceable(96) %1)
          to label %5 unwind label %16

5:                                                ; preds = %0
  %6 = invoke noundef nonnull align 8 dereferenceable(8) ptr @_ZStlsISt11char_traitsIcEERSt13basic_ostreamIcT_ES5_PKc(ptr noundef nonnull align 8 dereferenceable(8) %4, ptr noundef nonnull @.str.88)
          to label %7 unwind label %16

7:                                                ; preds = %5
  call void @_ZN6google10LogMessageD1Ev(ptr noundef nonnull align 8 dereferenceable(96) %1)
  call void @_ZN6google10LogMessageC1EPKci(ptr noundef nonnull align 8 dereferenceable(96) %2, ptr noundef nonnull @.str.3, i32 noundef 75)
  %8 = invoke noundef nonnull align 8 dereferenceable(8) ptr @_ZN6google10LogMessage6streamEv(ptr noundef nonnull align 8 dereferenceable(96) %2)
          to label %9 unwind label %18

9:                                                ; preds = %7
  %10 = invoke noundef nonnull align 8 dereferenceable(8) ptr @_ZStlsISt11char_traitsIcEERSt13basic_ostreamIcT_ES5_PKc(ptr noundef nonnull align 8 dereferenceable(8) %8, ptr noundef nonnull @.str.90)
          to label %11 unwind label %18

11:                                               ; preds = %9
  call void @_ZN6google10LogMessageD1Ev(ptr noundef nonnull align 8 dereferenceable(96) %2)
  call void @_ZN6google10LogMessageC1EPKci(ptr noundef nonnull align 8 dereferenceable(96) %3, ptr noundef nonnull @.str.3, i32 noundef 76)
  %12 = invoke noundef nonnull align 8 dereferenceable(8) ptr @_ZN6google10LogMessage6streamEv(ptr noundef nonnull align 8 dereferenceable(96) %3)
          to label %13 unwind label %20

13:                                               ; preds = %11
  %14 = invoke noundef nonnull align 8 dereferenceable(8) ptr @_ZStlsISt11char_traitsIcEERSt13basic_ostreamIcT_ES5_PKc(ptr noundef nonnull align 8 dereferenceable(8) %12, ptr noundef nonnull @.str.92)
          to label %15 unwind label %20

15:                                               ; preds = %13
  call void @_ZN6google10LogMessageD1Ev(ptr noundef nonnull align 8 dereferenceable(96) %3)
  ret void

16:                                               ; preds = %5, %0
  %17 = landingpad { ptr, i32 }
          cleanup
  invoke void @_ZN6google10LogMessageD1Ev(ptr noundef nonnull align 8 dereferenceable(96) %1)
          to label %22 unwind label %23

18:                                               ; preds = %9, %7
  %19 = landingpad { ptr, i32 }
          cleanup
  invoke void @_ZN6google10LogMessageD1Ev(ptr noundef nonnull align 8 dereferenceable(96) %2)
          to label %22 unwind label %23

20:                                               ; preds = %13, %11
  %21 = landingpad { ptr, i32 }
          cleanup
  invoke void @_ZN6google10LogMessageD1Ev(ptr noundef nonnull align 8 dereferenceable(96) %3)
          to label %22 unwind label %23

22:                                               ; preds = %20, %18, %16
  %.pn = phi { ptr, i32 } [ %21, %20 ], [ %19, %18 ], [ %17, %16 ]
  resume { ptr, i32 } %.pn

23:                                               ; preds = %20, %18, %16
  %24 = landingpad { ptr, i32 }
          catch ptr null
  %25 = extractvalue { ptr, i32 } %24, 0
  call void @__clang_call_terminate(ptr %25) #26
  unreachable
}